; Function Attrs: mustprogress uwtable
define hidden void @_ZN11cmd_context18set_produce_modelsEb(ptr nocapture noundef nonnull align 8 dereferenceable(872) %this, i1 noundef zeroext %f) local_unnamed_addr #4 align 2 {
entry:
  %m_solver = getelementptr inbounds i8, ptr %this, i64 808
  %0 = load ptr, ptr %m_solver, align 8
  %cmp.i.not = icmp eq ptr %0, null
  br i1 %cmp.i.not, label %if.end, label %if.then

if.then:                                          ; preds = %entry
  %vtable = load ptr, ptr %0, align 8
  %vfn = getelementptr inbounds i8, ptr %vtable, i64 136
  %1 = load ptr, ptr %vfn, align 8
  tail call void %1(ptr noundef nonnull align 8 dereferenceable(96) %0, i1 noundef zeroext %f)
  br label %if.end

if.end:                                           ; preds = %if.then, %entry
  %frombool = zext i1 %f to i8
  %m_model = getelementptr inbounds i8, ptr %this, i64 189
  store i8 %frombool, ptr %m_model, align 1
  ret void
}